ccopy_reg
_reconstructor
p0
(cpandas.core.frame
DataFrame
p1
c__builtin__
object
p2
Ntp3
Rp4
(dp5
S'_metadata'
p6
(lp7
sS'_typ'
p8
S'dataframe'
p9
sS'_data'
p10
g0
(cpandas.core.internals
BlockManager
p11
g2
Ntp12
Rp13
((lp14
cpandas.indexes.base
_new_Index
p15
(cpandas.indexes.base
Index
p16
(dp17
S'data'
p18
cnumpy.core.multiarray
_reconstruct
p19
(cnumpy
ndarray
p20
(I0
tp21
S'b'
p22
tp23
Rp24
(I1
(I5
tp25
cnumpy
dtype
p26
(S'O8'
p27
I0
I1
tp28
Rp29
(I3
S'|'
p30
NNNI-1
I-1
I63
tp31
bI00
(lp32
S'Column'
p33
aS'Type'
p34
aS'Null'
p35
aS'Partition Key'
p36
aS'Comment'
p37
atp38
bsS'name'
p39
Nstp40
Rp41
ag15
(cpandas.indexes.range
RangeIndex
p42
(dp43
S'start'
p44
I0
sS'step'
p45
I1
sS'stop'
p46
I11
sg39
Nstp47
Rp48
a(lp49
g19
(g20
(I0
tp50
g22
tp51
Rp52
(I1
(I5
I11
tp53
g29
I01
(lp54
S'id_visitor'
p55
aS'id_session'
p56
aS'dim_session_number'
p57
aS'dim_user_agent'
p58
aS'dim_device_app_combo'
p59
aS'ds'
p60
aS'ts_min'
p61
aS'ts_max'
p62
aS'did_search'
p63
aS'sent_message'
p64
aS'sent_booking_request'
p65
aS'varchar'
p66
ag66
aS'bigint'
p67
ag66
ag66
ag66
ag66
ag66
ag67
ag67
ag67
aS'true'
p68
ag68
ag68
ag68
ag68
ag68
ag68
ag68
ag68
ag68
ag68
aS'false'
p69
ag69
ag69
ag69
ag69
ag69
ag69
ag69
ag69
ag69
ag69
aS'id of the visitor'
p70
aS'id of the session'
p71
aS'the number of session on a given day for a visitor'
p72
aS'user agent of the session'
p73
aS'parsed out device/app combo from user agent'
p74
aS'date stamp of session'
p75
aS'time of session start'
p76
aS'time of session end'
p77
aS'binary flag indicating if the visitor performed a search during the session'
p78
aS'binary flag indicating if the visitor sent a message during the session'
p79
aS'binary flag indicating if the visitor sent a booking request during the session'
p80
atp81
ba(lp82
g15
(g16
(dp83
g18
g19
(g20
(I0
tp84
g22
tp85
Rp86
(I1
(I5
tp87
g29
I00
(lp88
g33
ag34
ag35
ag36
ag37
atp89
bsg39
Nstp90
Rp91
a(dp92
S'0.14.1'
p93
(dp94
S'axes'
p95
g14
sS'blocks'
p96
(lp97
(dp98
S'mgr_locs'
p99
c__builtin__
slice
p100
(I0
I5
I1
tp101
Rp102
sS'values'
p103
g52
sasstp104
bsb.