ccopy_reg
_reconstructor
p0
(csklearn.linear_model.ridge
RidgeCV
p1
c__builtin__
object
p2
Ntp3
Rp4
(dp5
S'normalize'
p6
I00
sS'alphas'
p7
(F0.1
F1.0
F10.0
tp8
sS'fit_intercept'
p9
I00
sS'gcv_mode'
p10
NsS'alpha_'
p11
F10.0
sS'coef_'
p12
cnumpy.core.multiarray
_reconstruct
p13
(cnumpy
ndarray
p14
(I0
tp15
S'b'
p16
tp17
Rp18
(I1
(I4
tp19
cnumpy
dtype
p20
(S'f8'
p21
I0
I1
tp22
Rp23
(I3
S'<'
p24
NNNI-1
I-1
I0
tp25
bI00
S'\xbc\x94\x88j^\xa0\xcf?B\xcc\xb7X};\x0c@\x05\xdf\x12\n\x9e\xf2O@gq\x8c\xb2l\x95+@'
p26
tp27
bsS'_sklearn_version'
p28
S'0.18'
p29
sS'store_cv_values'
p30
I00
sS'scoring'
p31
NsS'intercept_'
p32
F0.0
sS'cv'
p33
I5
sb.