(dp0
S'Bronx'
p1
(dp2
S'Port Morris'
p3
I29
sS'Edenwald'
p4
I45
sS'Baychester'
p5
I12
sS'Pelham Bay'
p6
I7
sS'Fieldston'
p7
I27
sS'Mount Eden'
p8
I4
sS'Mount Hope'
p9
I31
sS'Clason Point'
p10
I16
sS'Concourse'
p11
I38
sS'Melrose'
p12
I34
sS'Unionport'
p13
I37
sS'Olinville'
p14
I43
sS'Allerton'
p15
I5
sS'Bronxdale'
p16
I30
sS'West Farms'
p17
I3
sS'Mott Haven'
p18
I17
sS'Riverdale'
p19
I35
sS'Parkchester'
p20
I32
sS'North Riverdale'
p21
I18
sS'Morrisania'
p22
I14
sS'Kingsbridge'
p23
I19
sS'Morris Heights'
p24
I2
sS'Concourse Village'
p25
I36
sS'Morris Park'
p26
I44
sS'Woodlawn'
p27
I24
sS'Norwood'
p28
I23
sS'Wakefield'
p29
I41
sS'Williamsbridge'
p30
I20
sS'Throgs Neck'
p31
I39
sS'Longwood'
p32
I22
sS'Claremont Village'
p33
I25
sS'Soundview'
p34
I0
sS'East Morrisania'
p35
I8
sS'Tremont'
p36
I10
sS'Pelham Gardens'
p37
I11
sS'University Heights'
p38
I6
sS'Fordham'
p39
I13
sS'City Island'
p40
I40
sS'Eastchester'
p41
I21
sS'Highbridge'
p42
I15
sS'Belmont'
p43
I33
sS'Van Nest'
p44
I1
sS'Co-op City'
p45
I28
sS'Spuyten Duyvil'
p46
I42
sS'Hunts Point'
p47
I9
sS'Schuylerville'
p48
I26
ssS'Brooklyn'
p49
(dp50
S'Columbia St'
p51
I28
sS'Greenpoint'
p52
I29
sS'Gerritsen Beach'
p53
I46
sS'Coney Island'
p54
I22
sS'Bath Beach'
p55
I14
sS'East New York'
p56
I16
sS'Cypress Hills'
p57
I4
sS'Cobble Hill'
p58
I42
sS'Williamsburg'
p59
I27
sS'Prospect-Lefferts Gardens'
p60
I21
sS'Sea Gate'
p61
I26
sS'Crown Heights'
p62
I18
sS'Bensonhurst'
p63
I7
sS'Windsor Terrace'
p64
I34
sS'Flatbush'
p65
I12
sS'Mill Basin'
p66
I24
sS'Clinton Hill'
p67
I31
sS'Bedford-Stuyvesant'
p68
I20
sS'Gravesend'
p69
I6
sS'Gowanus'
p70
I37
sS'Vinegar Hill'
p71
I45
sS'Canarsie'
p72
I25
sS'Fort Hamilton'
p73
I17
sS'Sunset Park'
p74
I10
sS'Park Slope'
p75
I41
sS'Flatlands'
p76
I15
sS'Kensington'
p77
I9
sS'Prospect Heights'
p78
I30
sS'Downtown Brooklyn'
p79
I32
sS'Boerum Hill'
p80
I36
sS'Dyker Heights'
p81
I5
sS'Bergen Beach'
p82
I0
sS'East Flatbush'
p83
I13
sS'Bay Ridge'
p84
I19
sS'DUMBO'
p85
I47
sS'Brownsville'
p86
I3
sS'Navy Yard'
p87
I39
sS'Bushwick'
p88
I8
sS'Brighton Beach'
p89
I23
sS'Red Hook'
p90
I33
sS'Brooklyn Heights'
p91
I43
sS'Carroll Gardens'
p92
I44
sS'Fort Greene'
p93
I38
sS'Borough Park'
p94
I1
sS'Sheepshead Bay'
p95
I2
sS'Midwood'
p96
I11
sS'Manhattan Beach'
p97
I35
sS'South Slope'
p98
I40
ssS'Staten Island'
p99
(dp100
S'Oakwood'
p101
I23
sS'Mariners Harbor'
p102
I20
sS'Grymes Hill'
p103
I21
sS'Port Richmond'
p104
I29
sS'Castleton Corners'
p105
I1
sS'Emerson Hill'
p106
I16
sS'Arden Heights'
p107
I0
sS'Westerleigh'
p108
I9
sS'Tottenville'
p109
I28
sS'Tompkinsville'
p110
I5
sS'Dongan Hills'
p111
I26
sS'Todt Hill'
p112
I30
sS'Randall Manor'
p113
I6
sS'New Dorp Beach'
p114
I15
sS'Shore Acres'
p115
I25
sS'Lighthouse Hill'
p116
I27
sS'Stapleton'
p117
I7
sS'Great Kills'
p118
I19
sS'Silver Lake'
p119
I24
sS'West Brighton'
p120
I14
sS'Eltingville'
p121
I10
sS'Concord'
p122
I3
sS'Midland Beach'
p123
I13
sS'Clifton'
p124
I2
sS'Graniteville'
p125
I22
sS'New Brighton'
p126
I11
sS'Howland Hook'
p127
I8
sS'New Springville'
p128
I4
sS'St. George'
p129
I12
sS'Arrochar'
p130
I17
sS'South Beach'
p131
I18
ssS'Manhattan'
p132
(dp133
S'Lower East Side'
p134
I10
sS'Little Italy'
p135
I11
sS'Upper East Side'
p136
I13
sS'Flatiron District'
p137
I30
sS'West Village'
p138
I28
sS'Morningside Heights'
p139
I3
sS'Upper West Side'
p140
I14
sS'East Harlem'
p141
I6
sS'Inwood'
p142
I1
sS'Greenwich Village'
p143
I25
sS'Gramercy'
p144
I17
sS'Stuyvesant Town'
p145
I7
sS'Marble Hill'
p146
I4
sS'Chelsea'
p147
I23
sS'SoHo'
p148
I27
sS'NoHo'
p149
I29
sS'Tribeca'
p150
I31
sS'Financial District'
p151
I20
sS'Theater District'
p152
I24
sS'Chinatown'
p153
I9
sS'Midtown'
p154
I22
sS'Kips Bay'
p155
I18
sS"Hell's Kitchen"
p156
I16
sS'Roosevelt Island'
p157
I2
sS'Harlem'
p158
I5
sS'Washington Heights'
p159
I0
sS'Two Bridges'
p160
I8
sS'Civic Center'
p161
I15
sS'Murray Hill'
p162
I19
sS'Battery Park City'
p163
I26
sS'East Village'
p164
I12
sS'Nolita'
p165
I21
ssS'Queens'
p166
(dp167
S'Ozone Park'
p168
I25
sS'Bayside'
p169
I27
sS'Sunnyside'
p170
I28
sS'Springfield Gardens'
p171
I26
sS'Edgemere'
p172
I32
sS'Ridgewood'
p173
I11
sS'Glendale'
p174
I2
sS'Flushing'
p175
I17
sS'Arverne'
p176
I29
sS'Bay Terrace'
p177
I41
sS'Holliswood'
p178
I12
sS'Rockaway Beach'
p179
I43
sS'Forest Hills'
p180
I36
sS'Jackson Heights'
p181
I22
sS'Woodhaven'
p182
I0
sS'St. Albans'
p183
I13
sS'Middle Village'
p184
I40
sS'Astoria'
p185
I35
sS'Bellerose'
p186
I44
sS'Hollis Hills'
p187
I48
sS'Elmhurst'
p188
I16
sS'College Point'
p189
I45
sS'Richmond Hill'
p190
I20
sS'Laurelton'
p191
I18
sS'Far Rockaway'
p192
I3
sS'Long Island City'
p193
I42
sS'Belle Harbor'
p194
I46
sS'Jamaica Estates'
p195
I21
sS'Woodside'
p196
I15
sS'Corona'
p197
I10
sS'Maspeth'
p198
I5
sS'East Elmhurst'
p199
I9
sS'Hollis'
p200
I14
sS'Rego Park'
p201
I24
sS'Little Neck'
p202
I47
sS'Bayswater'
p203
I33
sS'Cambria Heights'
p204
I4
sS'South Ozone Park'
p205
I38
sS'Queens Village'
p206
I6
sS'Whitestone'
p207
I19
sS'Jamaica'
p208
I23
sS'Neponsit'
p209
I49
sS'Glen Oaks'
p210
I30
sS'Rosedale'
p211
I39
sS'Howard Beach'
p212
I7
sS'Kew Gardens Hills'
p213
I34
sS'Fresh Meadows'
p214
I37
sS'Ditmars Steinway'
p215
I31
sS'Briarwood'
p216
I8
sS'Kew Gardens'
p217
I1
ss.